target datalayout = "e-m:e-p270:32:32-p271:32:32-p272:64:64-i64:64-i128:128-f80:128-n8:16:32:64-S128"
target triple = "x86_64-pc-linux-gnu"

%union.pthread_mutex_t = type { %struct.__pthread_mutex_s }
%struct.__pthread_mutex_s = type { i32, i32, i32, i32, i32, i16, i16, %struct.__pthread_internal_list }
%struct.__pthread_internal_list = type { ptr, ptr }
%struct.acct_gather_profile_timer_t = type { i32, i64, %union.pthread_cond_t, %union.pthread_mutex_t }
%union.pthread_cond_t = type { %struct.__pthread_cond_s }
%struct.__pthread_cond_s = type { %union.__atomic_wide_counter, %union.__atomic_wide_counter, [2 x i32], [2 x i32], i32, i32, [2 x i32] }
%union.__atomic_wide_counter = type { i64 }

@g_context_lock = internal global %union.pthread_mutex_t zeroinitializer, align 8
@.str.1 = private unnamed_addr constant [29 x i8] c"%s: pthread_mutex_lock(): %m\00", align 1
@plugin_inited = internal global i32 0, align 4
@g_context = internal global ptr null, align 8
@init_run_mutex = internal global %union.pthread_mutex_t zeroinitializer, align 8
@.str.3 = private unnamed_addr constant [31 x i8] c"%s: pthread_mutex_unlock(): %m\00", align 1
@jobacct_gather_fini.fini_ran = internal global i8 0, align 1
@__func__.jobacct_gather_fini = private unnamed_addr constant [20 x i8] c"jobacct_gather_fini\00", align 1
@watch_tasks_thread_id = internal global i64 0, align 8
@profile_timer = internal global ptr getelementptr (i8, ptr @acct_gather_profile_timer, i64 104), align 8
@.str.7 = private unnamed_addr constant [36 x i8] c"%s:%d %s: pthread_cond_signal(): %m\00", align 1
@.str.8 = private unnamed_addr constant [17 x i8] c"jobacct_gather.c\00", align 1
@.str.9 = private unnamed_addr constant [23 x i8] c"%s: pthread_join(): %m\00", align 1

; Function Attrs: nounwind uwtable
define dso_local i32 @jobacct_gather_fini() #0 {
  %1 = alloca i32, align 4
  %2 = alloca i32, align 4
  %3 = alloca i32, align 4
  %4 = alloca i32, align 4
  %5 = alloca i32, align 4
  %6 = alloca i32, align 4
  %7 = alloca i32, align 4
  %8 = alloca i32, align 4
  %9 = alloca i32, align 4
  %10 = alloca i32, align 4
  %11 = alloca i32, align 4
  %12 = alloca i32, align 4
  %13 = alloca i32, align 4
  %14 = alloca i32, align 4
  call void @llvm.lifetime.start.p0(i64 4, ptr %2) #8
  store i32 0, ptr %2, align 4
  br label %15

15:                                               ; preds = %0
  call void @llvm.lifetime.start.p0(i64 4, ptr %3) #8
  %16 = call i32 @pthread_mutex_lock(ptr noundef @g_context_lock) #8
  store i32 %16, ptr %3, align 4
  %17 = load i32, ptr %3, align 4
  %18 = icmp ne i32 %17, 0
  br i1 %18, label %19, label %22

19:                                               ; preds = %15
  %20 = load i32, ptr %3, align 4
  %21 = call ptr @__errno_location() #9
  store i32 %20, ptr %21, align 4
  call void (ptr, ...) @fatal_abort(ptr noundef @.str.1, ptr noundef @__func__.jobacct_gather_fini) #10
  unreachable

22:                                               ; preds = %15
  call void @llvm.lifetime.end.p0(i64 4, ptr %3) #8
  br label %23

23:                                               ; preds = %22
  br label %24

24:                                               ; preds = %23
  %25 = load i8, ptr @jobacct_gather_fini.fini_ran, align 1, !range !8, !noundef !9
  %26 = trunc i8 %25 to i1
  br i1 %26, label %27, label %38

27:                                               ; preds = %24
  br label %28

28:                                               ; preds = %27
  call void @llvm.lifetime.start.p0(i64 4, ptr %4) #8
  %29 = call i32 @pthread_mutex_unlock(ptr noundef @g_context_lock) #8
  store i32 %29, ptr %4, align 4
  %30 = load i32, ptr %4, align 4
  %31 = icmp ne i32 %30, 0
  br i1 %31, label %32, label %35

32:                                               ; preds = %28
  %33 = load i32, ptr %4, align 4
  %34 = call ptr @__errno_location() #9
  store i32 %33, ptr %34, align 4
  call void (ptr, ...) @fatal_abort(ptr noundef @.str.3, ptr noundef @__func__.jobacct_gather_fini) #10
  unreachable

35:                                               ; preds = %28
  call void @llvm.lifetime.end.p0(i64 4, ptr %4) #8
  br label %36

36:                                               ; preds = %35
  br label %37

37:                                               ; preds = %36
  store i32 0, ptr %1, align 4
  store i32 1, ptr %5, align 4
  br label %153

38:                                               ; preds = %24
  store i8 1, ptr @jobacct_gather_fini.fini_ran, align 1
  %39 = load ptr, ptr @g_context, align 8
  %40 = icmp ne ptr %39, null
  br i1 %40, label %41, label %121

41:                                               ; preds = %38
  %42 = load i64, ptr @watch_tasks_thread_id, align 8
  %43 = icmp ne i64 %42, 0
  br i1 %43, label %44, label %118

44:                                               ; preds = %41
  br label %45

45:                                               ; preds = %44
  call void @llvm.lifetime.start.p0(i64 4, ptr %6) #8
  %46 = call i32 @pthread_mutex_unlock(ptr noundef @g_context_lock) #8
  store i32 %46, ptr %6, align 4
  %47 = load i32, ptr %6, align 4
  %48 = icmp ne i32 %47, 0
  br i1 %48, label %49, label %52

49:                                               ; preds = %45
  %50 = load i32, ptr %6, align 4
  %51 = call ptr @__errno_location() #9
  store i32 %50, ptr %51, align 4
  call void (ptr, ...) @fatal_abort(ptr noundef @.str.3, ptr noundef @__func__.jobacct_gather_fini) #10
  unreachable

52:                                               ; preds = %45
  call void @llvm.lifetime.end.p0(i64 4, ptr %6) #8
  br label %53

53:                                               ; preds = %52
  br label %54

54:                                               ; preds = %53
  br label %55

55:                                               ; preds = %54
  call void @llvm.lifetime.start.p0(i64 4, ptr %7) #8
  %56 = load ptr, ptr @profile_timer, align 8
  %57 = getelementptr inbounds nuw %struct.acct_gather_profile_timer_t, ptr %56, i32 0, i32 3
  %58 = call i32 @pthread_mutex_lock(ptr noundef %57) #8
  store i32 %58, ptr %7, align 4
  %59 = load i32, ptr %7, align 4
  %60 = icmp ne i32 %59, 0
  br i1 %60, label %61, label %64

61:                                               ; preds = %55
  %62 = load i32, ptr %7, align 4
  %63 = call ptr @__errno_location() #9
  store i32 %62, ptr %63, align 4
  call void (ptr, ...) @fatal_abort(ptr noundef @.str.1, ptr noundef @__func__.jobacct_gather_fini) #10
  unreachable

64:                                               ; preds = %55
  call void @llvm.lifetime.end.p0(i64 4, ptr %7) #8
  br label %65

65:                                               ; preds = %64
  br label %66

66:                                               ; preds = %65
  br label %67

67:                                               ; preds = %66
  call void @llvm.lifetime.start.p0(i64 4, ptr %8) #8
  %68 = load ptr, ptr @profile_timer, align 8
  %69 = getelementptr inbounds nuw %struct.acct_gather_profile_timer_t, ptr %68, i32 0, i32 2
  %70 = call i32 @pthread_cond_signal(ptr noundef %69) #8
  store i32 %70, ptr %8, align 4
  %71 = load i32, ptr %8, align 4
  %72 = icmp ne i32 %71, 0
  br i1 %72, label %73, label %77

73:                                               ; preds = %67
  %74 = load i32, ptr %8, align 4
  %75 = call ptr @__errno_location() #9
  store i32 %74, ptr %75, align 4
  %76 = call i32 (ptr, ...) @error(ptr noundef @.str.7, ptr noundef @.str.8, i32 noundef 586, ptr noundef @__func__.jobacct_gather_fini)
  br label %77

77:                                               ; preds = %73, %67
  call void @llvm.lifetime.end.p0(i64 4, ptr %8) #8
  br label %78

78:                                               ; preds = %77
  br label %79

79:                                               ; preds = %78
  br label %80

80:                                               ; preds = %79
  call void @llvm.lifetime.start.p0(i64 4, ptr %9) #8
  %81 = load ptr, ptr @profile_timer, align 8
  %82 = getelementptr inbounds nuw %struct.acct_gather_profile_timer_t, ptr %81, i32 0, i32 3
  %83 = call i32 @pthread_mutex_unlock(ptr noundef %82) #8
  store i32 %83, ptr %9, align 4
  %84 = load i32, ptr %9, align 4
  %85 = icmp ne i32 %84, 0
  br i1 %85, label %86, label %89

86:                                               ; preds = %80
  %87 = load i32, ptr %9, align 4
  %88 = call ptr @__errno_location() #9
  store i32 %87, ptr %88, align 4
  call void (ptr, ...) @fatal_abort(ptr noundef @.str.3, ptr noundef @__func__.jobacct_gather_fini) #10
  unreachable

89:                                               ; preds = %80
  call void @llvm.lifetime.end.p0(i64 4, ptr %9) #8
  br label %90

90:                                               ; preds = %89
  br label %91

91:                                               ; preds = %90
  br label %92

92:                                               ; preds = %91
  call void @llvm.lifetime.start.p0(i64 4, ptr %10) #8
  store i32 0, ptr %10, align 4
  %93 = load i64, ptr @watch_tasks_thread_id, align 8
  %94 = icmp ne i64 %93, 0
  br i1 %94, label %95, label %98

95:                                               ; preds = %92
  %96 = load i64, ptr @watch_tasks_thread_id, align 8
  %97 = call i32 @pthread_join(i64 noundef %96, ptr noundef null)
  store i32 %97, ptr %10, align 4
  store i64 0, ptr @watch_tasks_thread_id, align 8
  br label %98

98:                                               ; preds = %95, %92
  %99 = load i32, ptr %10, align 4
  %100 = icmp ne i32 %99, 0
  br i1 %100, label %101, label %105

101:                                              ; preds = %98
  %102 = load i32, ptr %10, align 4
  %103 = call ptr @__errno_location() #9
  store i32 %102, ptr %103, align 4
  %104 = call i32 (ptr, ...) @error(ptr noundef @.str.9, ptr noundef @__func__.jobacct_gather_fini)
  br label %105

105:                                              ; preds = %101, %98
  call void @llvm.lifetime.end.p0(i64 4, ptr %10) #8
  br label %106

106:                                              ; preds = %105
  br label %107

107:                                              ; preds = %106
  store i64 0, ptr @watch_tasks_thread_id, align 8
  br label %108

108:                                              ; preds = %107
  call void @llvm.lifetime.start.p0(i64 4, ptr %11) #8
  %109 = call i32 @pthread_mutex_lock(ptr noundef @g_context_lock) #8
  store i32 %109, ptr %11, align 4
  %110 = load i32, ptr %11, align 4
  %111 = icmp ne i32 %110, 0
  br i1 %111, label %112, label %115

112:                                              ; preds = %108
  %113 = load i32, ptr %11, align 4
  %114 = call ptr @__errno_location() #9
  store i32 %113, ptr %114, align 4
  call void (ptr, ...) @fatal_abort(ptr noundef @.str.1, ptr noundef @__func__.jobacct_gather_fini) #10
  unreachable

115:                                              ; preds = %108
  call void @llvm.lifetime.end.p0(i64 4, ptr %11) #8
  br label %116

116:                                              ; preds = %115
  br label %117

117:                                              ; preds = %116
  br label %118

118:                                              ; preds = %117, %41
  %119 = load ptr, ptr @g_context, align 8
  %120 = call i32 @plugin_context_destroy(ptr noundef %119)
  store i32 %120, ptr %2, align 4
  store ptr null, ptr @g_context, align 8
  br label %121

121:                                              ; preds = %118, %38
  br label %122

122:                                              ; preds = %121
  call void @llvm.lifetime.start.p0(i64 4, ptr %12) #8
  %123 = call i32 @pthread_mutex_lock(ptr noundef @init_run_mutex) #8
  store i32 %123, ptr %12, align 4
  %124 = load i32, ptr %12, align 4
  %125 = icmp ne i32 %124, 0
  br i1 %125, label %126, label %129

126:                                              ; preds = %122
  %127 = load i32, ptr %12, align 4
  %128 = call ptr @__errno_location() #9
  store i32 %127, ptr %128, align 4
  call void (ptr, ...) @fatal_abort(ptr noundef @.str.1, ptr noundef @__func__.jobacct_gather_fini) #10
  unreachable

129:                                              ; preds = %122
  call void @llvm.lifetime.end.p0(i64 4, ptr %12) #8
  br label %130

130:                                              ; preds = %129
  br label %131

131:                                              ; preds = %130
  store i32 0, ptr @plugin_inited, align 4
  br label %132

132:                                              ; preds = %131
  call void @llvm.lifetime.start.p0(i64 4, ptr %13) #8
  %133 = call i32 @pthread_mutex_unlock(ptr noundef @init_run_mutex) #8
  store i32 %133, ptr %13, align 4
  %134 = load i32, ptr %13, align 4
  %135 = icmp ne i32 %134, 0
  br i1 %135, label %136, label %139

136:                                              ; preds = %132
  %137 = load i32, ptr %13, align 4
  %138 = call ptr @__errno_location() #9
  store i32 %137, ptr %138, align 4
  call void (ptr, ...) @fatal_abort(ptr noundef @.str.3, ptr noundef @__func__.jobacct_gather_fini) #10
  unreachable

139:                                              ; preds = %132
  call void @llvm.lifetime.end.p0(i64 4, ptr %13) #8
  br label %140

140:                                              ; preds = %139
  br label %141

141:                                              ; preds = %140
  br label %142

142:                                              ; preds = %141
  call void @llvm.lifetime.start.p0(i64 4, ptr %14) #8
  %143 = call i32 @pthread_mutex_unlock(ptr noundef @g_context_lock) #8
  store i32 %143, ptr %14, align 4
  %144 = load i32, ptr %14, align 4
  %145 = icmp ne i32 %144, 0
  br i1 %145, label %146, label %149

146:                                              ; preds = %142
  %147 = load i32, ptr %14, align 4
  %148 = call ptr @__errno_location() #9
  store i32 %147, ptr %148, align 4
  call void (ptr, ...) @fatal_abort(ptr noundef @.str.3, ptr noundef @__func__.jobacct_gather_fini) #10
  unreachable

149:                                              ; preds = %142
  call void @llvm.lifetime.end.p0(i64 4, ptr %14) #8
  br label %150

150:                                              ; preds = %149
  br label %151

151:                                              ; preds = %150
  %152 = load i32, ptr %2, align 4
  store i32 %152, ptr %1, align 4
  store i32 1, ptr %5, align 4
  br label %153

153:                                              ; preds = %151, %37
  call void @llvm.lifetime.end.p0(i64 4, ptr %2) #8
  %154 = load i32, ptr %1, align 4
  ret i32 %154
}